	.file	"daxpy.cpp"
	.text
	.section	.rodata
	.type	_ZStL19piecewise_construct, @object
	.size	_ZStL19piecewise_construct, 1
_ZStL19piecewise_construct:
	.zero	1
	.type	_ZStL13allocator_arg, @object
	.size	_ZStL13allocator_arg, 1
_ZStL13allocator_arg:
	.zero	1
	.type	_ZStL6ignore, @object
	.size	_ZStL6ignore, 1
_ZStL6ignore:
	.zero	1
	.local	_ZStL8__ioinit
	.comm	_ZStL8__ioinit,1,1
	.align 4
	.type	_ZN9__gnu_cxxL21__default_lock_policyE, @object
	.size	_ZN9__gnu_cxxL21__default_lock_policyE, 4
_ZN9__gnu_cxxL21__default_lock_policyE:
	.long	2
	.type	_ZStL10defer_lock, @object
	.size	_ZStL10defer_lock, 1
_ZStL10defer_lock:
	.zero	1
	.type	_ZStL11try_to_lock, @object
	.size	_ZStL11try_to_lock, 1
_ZStL11try_to_lock:
	.zero	1
	.type	_ZStL10adopt_lock, @object
	.size	_ZStL10adopt_lock, 1
_ZStL10adopt_lock:
	.zero	1
	.section	.text._ZNSt13random_deviceC2ERKNSt7__cxx1112basic_stringIcSt11char_traitsIcESaIcEEE,"axG",@progbits,_ZNSt13random_deviceC5ERKNSt7__cxx1112basic_stringIcSt11char_traitsIcESaIcEEE,comdat
	.align 2
	.weak	_ZNSt13random_deviceC2ERKNSt7__cxx1112basic_stringIcSt11char_traitsIcESaIcEEE
	.type	_ZNSt13random_deviceC2ERKNSt7__cxx1112basic_stringIcSt11char_traitsIcESaIcEEE, @function
_ZNSt13random_deviceC2ERKNSt7__cxx1112basic_stringIcSt11char_traitsIcESaIcEEE:
.LFB6636:
	.cfi_startproc
	pushq	%rbp
	.cfi_def_cfa_offset 16
	.cfi_offset 6, -16
	movq	%rsp, %rbp
	.cfi_def_cfa_register 6
	subq	$16, %rsp
	movq	%rdi, -8(%rbp)
	movq	%rsi, -16(%rbp)
	movq	-16(%rbp), %rdx
	movq	-8(%rbp), %rax
	movq	%rdx, %rsi
	movq	%rax, %rdi
	call	_ZNSt13random_device7_M_initERKNSt7__cxx1112basic_stringIcSt11char_traitsIcESaIcEEE@PLT
	nop
	leave
	.cfi_def_cfa 7, 8
	ret
	.cfi_endproc
.LFE6636:
	.size	_ZNSt13random_deviceC2ERKNSt7__cxx1112basic_stringIcSt11char_traitsIcESaIcEEE, .-_ZNSt13random_deviceC2ERKNSt7__cxx1112basic_stringIcSt11char_traitsIcESaIcEEE
	.weak	_ZNSt13random_deviceC1ERKNSt7__cxx1112basic_stringIcSt11char_traitsIcESaIcEEE
	.set	_ZNSt13random_deviceC1ERKNSt7__cxx1112basic_stringIcSt11char_traitsIcESaIcEEE,_ZNSt13random_deviceC2ERKNSt7__cxx1112basic_stringIcSt11char_traitsIcESaIcEEE
	.section	.text._ZNSt13random_deviceD2Ev,"axG",@progbits,_ZNSt13random_deviceD5Ev,comdat
	.align 2
	.weak	_ZNSt13random_deviceD2Ev
	.type	_ZNSt13random_deviceD2Ev, @function
_ZNSt13random_deviceD2Ev:
.LFB6639:
	.cfi_startproc
	.cfi_personality 0x9b,DW.ref.__gxx_personality_v0
	.cfi_lsda 0x1b,.LLSDA6639
	pushq	%rbp
	.cfi_def_cfa_offset 16
	.cfi_offset 6, -16
	movq	%rsp, %rbp
	.cfi_def_cfa_register 6
	subq	$16, %rsp
	movq	%rdi, -8(%rbp)
	movq	-8(%rbp), %rax
	movq	%rax, %rdi
	call	_ZNSt13random_device7_M_finiEv@PLT
	nop
	leave
	.cfi_def_cfa 7, 8
	ret
	.cfi_endproc
.LFE6639:
	.globl	__gxx_personality_v0
	.section	.gcc_except_table._ZNSt13random_deviceD2Ev,"aG",@progbits,_ZNSt13random_deviceD5Ev,comdat
.LLSDA6639:
	.byte	0xff
	.byte	0xff
	.byte	0x1
	.uleb128 .LLSDACSE6639-.LLSDACSB6639
.LLSDACSB6639:
.LLSDACSE6639:
	.section	.text._ZNSt13random_deviceD2Ev,"axG",@progbits,_ZNSt13random_deviceD5Ev,comdat
	.size	_ZNSt13random_deviceD2Ev, .-_ZNSt13random_deviceD2Ev
	.weak	_ZNSt13random_deviceD1Ev
	.set	_ZNSt13random_deviceD1Ev,_ZNSt13random_deviceD2Ev
	.section	.text._ZNSt13random_deviceclEv,"axG",@progbits,_ZNSt13random_deviceclEv,comdat
	.align 2
	.weak	_ZNSt13random_deviceclEv
	.type	_ZNSt13random_deviceclEv, @function
_ZNSt13random_deviceclEv:
.LFB6644:
	.cfi_startproc
	pushq	%rbp
	.cfi_def_cfa_offset 16
	.cfi_offset 6, -16
	movq	%rsp, %rbp
	.cfi_def_cfa_register 6
	subq	$16, %rsp
	movq	%rdi, -8(%rbp)
	movq	-8(%rbp), %rax
	movq	%rax, %rdi
	call	_ZNSt13random_device9_M_getvalEv@PLT
	leave
	.cfi_def_cfa 7, 8
	ret
	.cfi_endproc
.LFE6644:
	.size	_ZNSt13random_deviceclEv, .-_ZNSt13random_deviceclEv
	.section	.rodata
	.align 4
	.type	_ZNSt15regex_constantsL5icaseE, @object
	.size	_ZNSt15regex_constantsL5icaseE, 4
_ZNSt15regex_constantsL5icaseE:
	.long	1
	.align 4
	.type	_ZNSt15regex_constantsL6nosubsE, @object
	.size	_ZNSt15regex_constantsL6nosubsE, 4
_ZNSt15regex_constantsL6nosubsE:
	.long	2
	.align 4
	.type	_ZNSt15regex_constantsL8optimizeE, @object
	.size	_ZNSt15regex_constantsL8optimizeE, 4
_ZNSt15regex_constantsL8optimizeE:
	.long	4
	.align 4
	.type	_ZNSt15regex_constantsL7collateE, @object
	.size	_ZNSt15regex_constantsL7collateE, 4
_ZNSt15regex_constantsL7collateE:
	.long	8
	.align 4
	.type	_ZNSt15regex_constantsL10ECMAScriptE, @object
	.size	_ZNSt15regex_constantsL10ECMAScriptE, 4
_ZNSt15regex_constantsL10ECMAScriptE:
	.long	16
	.align 4
	.type	_ZNSt15regex_constantsL5basicE, @object
	.size	_ZNSt15regex_constantsL5basicE, 4
_ZNSt15regex_constantsL5basicE:
	.long	32
	.align 4
	.type	_ZNSt15regex_constantsL8extendedE, @object
	.size	_ZNSt15regex_constantsL8extendedE, 4
_ZNSt15regex_constantsL8extendedE:
	.long	64
	.align 4
	.type	_ZNSt15regex_constantsL3awkE, @object
	.size	_ZNSt15regex_constantsL3awkE, 4
_ZNSt15regex_constantsL3awkE:
	.long	128
	.align 4
	.type	_ZNSt15regex_constantsL4grepE, @object
	.size	_ZNSt15regex_constantsL4grepE, 4
_ZNSt15regex_constantsL4grepE:
	.long	256
	.align 4
	.type	_ZNSt15regex_constantsL5egrepE, @object
	.size	_ZNSt15regex_constantsL5egrepE, 4
_ZNSt15regex_constantsL5egrepE:
	.long	512
	.align 4
	.type	_ZNSt15regex_constantsL12__polynomialE, @object
	.size	_ZNSt15regex_constantsL12__polynomialE, 4
_ZNSt15regex_constantsL12__polynomialE:
	.long	1024
	.align 4
	.type	_ZNSt15regex_constantsL13match_defaultE, @object
	.size	_ZNSt15regex_constantsL13match_defaultE, 4
_ZNSt15regex_constantsL13match_defaultE:
	.zero	4
	.align 4
	.type	_ZNSt15regex_constantsL13match_not_bolE, @object
	.size	_ZNSt15regex_constantsL13match_not_bolE, 4
_ZNSt15regex_constantsL13match_not_bolE:
	.long	1
	.align 4
	.type	_ZNSt15regex_constantsL13match_not_eolE, @object
	.size	_ZNSt15regex_constantsL13match_not_eolE, 4
_ZNSt15regex_constantsL13match_not_eolE:
	.long	2
	.align 4
	.type	_ZNSt15regex_constantsL13match_not_bowE, @object
	.size	_ZNSt15regex_constantsL13match_not_bowE, 4
_ZNSt15regex_constantsL13match_not_bowE:
	.long	4
	.align 4
	.type	_ZNSt15regex_constantsL13match_not_eowE, @object
	.size	_ZNSt15regex_constantsL13match_not_eowE, 4
_ZNSt15regex_constantsL13match_not_eowE:
	.long	8
	.align 4
	.type	_ZNSt15regex_constantsL9match_anyE, @object
	.size	_ZNSt15regex_constantsL9match_anyE, 4
_ZNSt15regex_constantsL9match_anyE:
	.long	16
	.align 4
	.type	_ZNSt15regex_constantsL14match_not_nullE, @object
	.size	_ZNSt15regex_constantsL14match_not_nullE, 4
_ZNSt15regex_constantsL14match_not_nullE:
	.long	32
	.align 4
	.type	_ZNSt15regex_constantsL16match_continuousE, @object
	.size	_ZNSt15regex_constantsL16match_continuousE, 4
_ZNSt15regex_constantsL16match_continuousE:
	.long	64
	.align 4
	.type	_ZNSt15regex_constantsL16match_prev_availE, @object
	.size	_ZNSt15regex_constantsL16match_prev_availE, 4
_ZNSt15regex_constantsL16match_prev_availE:
	.long	128
	.align 4
	.type	_ZNSt15regex_constantsL14format_defaultE, @object
	.size	_ZNSt15regex_constantsL14format_defaultE, 4
_ZNSt15regex_constantsL14format_defaultE:
	.zero	4
	.align 4
	.type	_ZNSt15regex_constantsL10format_sedE, @object
	.size	_ZNSt15regex_constantsL10format_sedE, 4
_ZNSt15regex_constantsL10format_sedE:
	.long	256
	.align 4
	.type	_ZNSt15regex_constantsL14format_no_copyE, @object
	.size	_ZNSt15regex_constantsL14format_no_copyE, 4
_ZNSt15regex_constantsL14format_no_copyE:
	.long	512
	.align 4
	.type	_ZNSt15regex_constantsL17format_first_onlyE, @object
	.size	_ZNSt15regex_constantsL17format_first_onlyE, 4
_ZNSt15regex_constantsL17format_first_onlyE:
	.long	1024
	.align 4
	.type	_ZNSt15regex_constantsL13error_collateE, @object
	.size	_ZNSt15regex_constantsL13error_collateE, 4
_ZNSt15regex_constantsL13error_collateE:
	.zero	4
	.align 4
	.type	_ZNSt15regex_constantsL11error_ctypeE, @object
	.size	_ZNSt15regex_constantsL11error_ctypeE, 4
_ZNSt15regex_constantsL11error_ctypeE:
	.long	1
	.align 4
	.type	_ZNSt15regex_constantsL12error_escapeE, @object
	.size	_ZNSt15regex_constantsL12error_escapeE, 4
_ZNSt15regex_constantsL12error_escapeE:
	.long	2
	.align 4
	.type	_ZNSt15regex_constantsL13error_backrefE, @object
	.size	_ZNSt15regex_constantsL13error_backrefE, 4
_ZNSt15regex_constantsL13error_backrefE:
	.long	3
	.align 4
	.type	_ZNSt15regex_constantsL11error_brackE, @object
	.size	_ZNSt15regex_constantsL11error_brackE, 4
_ZNSt15regex_constantsL11error_brackE:
	.long	4
	.align 4
	.type	_ZNSt15regex_constantsL11error_parenE, @object
	.size	_ZNSt15regex_constantsL11error_parenE, 4
_ZNSt15regex_constantsL11error_parenE:
	.long	5
	.align 4
	.type	_ZNSt15regex_constantsL11error_braceE, @object
	.size	_ZNSt15regex_constantsL11error_braceE, 4
_ZNSt15regex_constantsL11error_braceE:
	.long	6
	.align 4
	.type	_ZNSt15regex_constantsL14error_badbraceE, @object
	.size	_ZNSt15regex_constantsL14error_badbraceE, 4
_ZNSt15regex_constantsL14error_badbraceE:
	.long	7
	.align 4
	.type	_ZNSt15regex_constantsL11error_rangeE, @object
	.size	_ZNSt15regex_constantsL11error_rangeE, 4
_ZNSt15regex_constantsL11error_rangeE:
	.long	8
	.align 4
	.type	_ZNSt15regex_constantsL11error_spaceE, @object
	.size	_ZNSt15regex_constantsL11error_spaceE, 4
_ZNSt15regex_constantsL11error_spaceE:
	.long	9
	.align 4
	.type	_ZNSt15regex_constantsL15error_badrepeatE, @object
	.size	_ZNSt15regex_constantsL15error_badrepeatE, 4
_ZNSt15regex_constantsL15error_badrepeatE:
	.long	10
	.align 4
	.type	_ZNSt15regex_constantsL16error_complexityE, @object
	.size	_ZNSt15regex_constantsL16error_complexityE, 4
_ZNSt15regex_constantsL16error_complexityE:
	.long	11
	.align 4
	.type	_ZNSt15regex_constantsL11error_stackE, @object
	.size	_ZNSt15regex_constantsL11error_stackE, 4
_ZNSt15regex_constantsL11error_stackE:
	.long	12
	.align 8
	.type	_ZNSt8__detailL19_S_invalid_state_idE, @object
	.size	_ZNSt8__detailL19_S_invalid_state_idE, 8
_ZNSt8__detailL19_S_invalid_state_idE:
	.quad	-1
.LC1:
	.string	"default"
.LC5:
	.string	"%lf\n"
	.text
	.globl	main
	.type	main, @function
main:
.LFB8188:
	.cfi_startproc
	.cfi_personality 0x9b,DW.ref.__gxx_personality_v0
	.cfi_lsda 0x1b,.LLSDA8188
	pushq	%rbp
	.cfi_def_cfa_offset 16
	.cfi_offset 6, -16
	movq	%rsp, %rbp
	.cfi_def_cfa_register 6
	pushq	%rbx
	subq	$26104, %rsp
	.cfi_offset 3, -24
	movq	%fs:40, %rax
	movq	%rax, -24(%rbp)
	xorl	%eax, %eax
	movl	$1000, -26084(%rbp)
	movsd	.LC0(%rip), %xmm0
	movsd	%xmm0, -26072(%rbp)
	leaq	-26064(%rbp), %rax
	movq	%rax, %rdi
	call	_ZNSaIcEC1Ev@PLT
	leaq	-26064(%rbp), %rdx
	leaq	-8032(%rbp), %rax
	leaq	.LC1(%rip), %rsi
	movq	%rax, %rdi
.LEHB0:
	call	_ZNSt7__cxx1112basic_stringIcSt11char_traitsIcESaIcEEC1EPKcRKS3_@PLT
.LEHE0:
	leaq	-8032(%rbp), %rdx
	leaq	-26048(%rbp), %rax
	movq	%rdx, %rsi
	movq	%rax, %rdi
.LEHB1:
	call	_ZNSt13random_deviceC1ERKNSt7__cxx1112basic_stringIcSt11char_traitsIcESaIcEEE
.LEHE1:
	leaq	-8032(%rbp), %rax
	movq	%rax, %rdi
	call	_ZNSt7__cxx1112basic_stringIcSt11char_traitsIcESaIcEED1Ev@PLT
	leaq	-26064(%rbp), %rax
	movq	%rax, %rdi
	call	_ZNSaIcED1Ev@PLT
	leaq	-26048(%rbp), %rax
	movq	%rax, %rdi
.LEHB2:
	call	_ZNSt13random_deviceclEv
	movl	%eax, %edx
	leaq	-21040(%rbp), %rax
	movq	%rdx, %rsi
	movq	%rax, %rdi
	call	_ZNSt23mersenne_twister_engineImLm32ELm624ELm397ELm31ELm2567483615ELm11ELm4294967295ELm7ELm2636928640ELm15ELm4022730752ELm18ELm1812433253EEC1Em
	movsd	.LC2(%rip), %xmm0
	movq	.LC3(%rip), %rdx
	leaq	-26064(%rbp), %rax
	movapd	%xmm0, %xmm1
	movq	%rdx, -26104(%rbp)
	movsd	-26104(%rbp), %xmm0
	movq	%rax, %rdi
	call	_ZNSt25uniform_real_distributionIdEC1Edd
	movl	$0, -26096(%rbp)
.L7:
	cmpl	$999, -26096(%rbp)
	jg	.L6
	leaq	-21040(%rbp), %rdx
	leaq	-26064(%rbp), %rax
	movq	%rdx, %rsi
	movq	%rax, %rdi
	call	_ZNSt25uniform_real_distributionIdEclISt23mersenne_twister_engineImLm32ELm624ELm397ELm31ELm2567483615ELm11ELm4294967295ELm7ELm2636928640ELm15ELm4022730752ELm18ELm1812433253EEEEdRT_
	movq	%xmm0, %rdx
	movl	-26096(%rbp), %eax
	cltq
	movq	%rdx, -16032(%rbp,%rax,8)
	leaq	-21040(%rbp), %rdx
	leaq	-26064(%rbp), %rax
	movq	%rdx, %rsi
	movq	%rax, %rdi
	call	_ZNSt25uniform_real_distributionIdEclISt23mersenne_twister_engineImLm32ELm624ELm397ELm31ELm2567483615ELm11ELm4294967295ELm7ELm2636928640ELm15ELm4022730752ELm18ELm1812433253EEEEdRT_
	movq	%xmm0, %rdx
	movl	-26096(%rbp), %eax
	cltq
	movq	%rdx, -8032(%rbp,%rax,8)
	addl	$1, -26096(%rbp)
	jmp	.L7
.L6:
	movl	$0, -26092(%rbp)
.L9:
	cmpl	$999, -26092(%rbp)
	jg	.L8
	movl	-26092(%rbp), %eax
	cltq
	movsd	-16032(%rbp,%rax,8), %xmm0
	mulsd	-26072(%rbp), %xmm0
	movl	-26092(%rbp), %eax
	cltq
	movsd	-8032(%rbp,%rax,8), %xmm1
	addsd	%xmm1, %xmm0
	movl	-26092(%rbp), %eax
	cltq
	movsd	%xmm0, -8032(%rbp,%rax,8)
	addl	$1, -26092(%rbp)
	jmp	.L9
.L8:
	pxor	%xmm0, %xmm0
	movsd	%xmm0, -26080(%rbp)
	movl	$0, -26088(%rbp)
.L11:
	cmpl	$999, -26088(%rbp)
	jg	.L10
	movl	-26088(%rbp), %eax
	cltq
	movsd	-8032(%rbp,%rax,8), %xmm0
	movsd	-26080(%rbp), %xmm1
	addsd	%xmm1, %xmm0
	movsd	%xmm0, -26080(%rbp)
	addl	$1, -26088(%rbp)
	jmp	.L11
.L10:
	movq	-26080(%rbp), %rax
	movq	%rax, -26104(%rbp)
	movsd	-26104(%rbp), %xmm0
	leaq	.LC5(%rip), %rdi
	movl	$1, %eax
	call	printf@PLT
.LEHE2:
	movl	$0, %ebx
	leaq	-26048(%rbp), %rax
	movq	%rax, %rdi
	call	_ZNSt13random_deviceD1Ev
	movl	%ebx, %eax
	movq	-24(%rbp), %rcx
	xorq	%fs:40, %rcx
	je	.L16
	jmp	.L20
.L18:
	movq	%rax, %rbx
	leaq	-8032(%rbp), %rax
	movq	%rax, %rdi
	call	_ZNSt7__cxx1112basic_stringIcSt11char_traitsIcESaIcEED1Ev@PLT
	jmp	.L14
.L17:
	movq	%rax, %rbx
.L14:
	leaq	-26064(%rbp), %rax
	movq	%rax, %rdi
	call	_ZNSaIcED1Ev@PLT
	movq	%rbx, %rax
	movq	%rax, %rdi
.LEHB3:
	call	_Unwind_Resume@PLT
.L19:
	movq	%rax, %rbx
	leaq	-26048(%rbp), %rax
	movq	%rax, %rdi
	call	_ZNSt13random_deviceD1Ev
	movq	%rbx, %rax
	movq	%rax, %rdi
	call	_Unwind_Resume@PLT
.LEHE3:
.L20:
	call	__stack_chk_fail@PLT
.L16:
	addq	$26104, %rsp
	popq	%rbx
	popq	%rbp
	.cfi_def_cfa 7, 8
	ret
	.cfi_endproc
.LFE8188:
	.section	.gcc_except_table,"a",@progbits
.LLSDA8188:
	.byte	0xff
	.byte	0xff
	.byte	0x1
	.uleb128 .LLSDACSE8188-.LLSDACSB8188
.LLSDACSB8188:
	.uleb128 .LEHB0-.LFB8188
	.uleb128 .LEHE0-.LEHB0
	.uleb128 .L17-.LFB8188
	.uleb128 0
	.uleb128 .LEHB1-.LFB8188
	.uleb128 .LEHE1-.LEHB1
	.uleb128 .L18-.LFB8188
	.uleb128 0
	.uleb128 .LEHB2-.LFB8188
	.uleb128 .LEHE2-.LEHB2
	.uleb128 .L19-.LFB8188
	.uleb128 0
	.uleb128 .LEHB3-.LFB8188
	.uleb128 .LEHE3-.LEHB3
	.uleb128 0
	.uleb128 0
.LLSDACSE8188:
	.text
	.size	main, .-main
	.section	.text._ZNSt23mersenne_twister_engineImLm32ELm624ELm397ELm31ELm2567483615ELm11ELm4294967295ELm7ELm2636928640ELm15ELm4022730752ELm18ELm1812433253EEC2Em,"axG",@progbits,_ZNSt23mersenne_twister_engineImLm32ELm624ELm397ELm31ELm2567483615ELm11ELm4294967295ELm7ELm2636928640ELm15ELm4022730752ELm18ELm1812433253EEC5Em,comdat
	.align 2
	.weak	_ZNSt23mersenne_twister_engineImLm32ELm624ELm397ELm31ELm2567483615ELm11ELm4294967295ELm7ELm2636928640ELm15ELm4022730752ELm18ELm1812433253EEC2Em
	.type	_ZNSt23mersenne_twister_engineImLm32ELm624ELm397ELm31ELm2567483615ELm11ELm4294967295ELm7ELm2636928640ELm15ELm4022730752ELm18ELm1812433253EEC2Em, @function
_ZNSt23mersenne_twister_engineImLm32ELm624ELm397ELm31ELm2567483615ELm11ELm4294967295ELm7ELm2636928640ELm15ELm4022730752ELm18ELm1812433253EEC2Em:
.LFB8714:
	.cfi_startproc
	pushq	%rbp
	.cfi_def_cfa_offset 16
	.cfi_offset 6, -16
	movq	%rsp, %rbp
	.cfi_def_cfa_register 6
	subq	$16, %rsp
	movq	%rdi, -8(%rbp)
	movq	%rsi, -16(%rbp)
	movq	-16(%rbp), %rdx
	movq	-8(%rbp), %rax
	movq	%rdx, %rsi
	movq	%rax, %rdi
	call	_ZNSt23mersenne_twister_engineImLm32ELm624ELm397ELm31ELm2567483615ELm11ELm4294967295ELm7ELm2636928640ELm15ELm4022730752ELm18ELm1812433253EE4seedEm
	nop
	leave
	.cfi_def_cfa 7, 8
	ret
	.cfi_endproc
.LFE8714:
	.size	_ZNSt23mersenne_twister_engineImLm32ELm624ELm397ELm31ELm2567483615ELm11ELm4294967295ELm7ELm2636928640ELm15ELm4022730752ELm18ELm1812433253EEC2Em, .-_ZNSt23mersenne_twister_engineImLm32ELm624ELm397ELm31ELm2567483615ELm11ELm4294967295ELm7ELm2636928640ELm15ELm4022730752ELm18ELm1812433253EEC2Em
	.weak	_ZNSt23mersenne_twister_engineImLm32ELm624ELm397ELm31ELm2567483615ELm11ELm4294967295ELm7ELm2636928640ELm15ELm4022730752ELm18ELm1812433253EEC1Em
	.set	_ZNSt23mersenne_twister_engineImLm32ELm624ELm397ELm31ELm2567483615ELm11ELm4294967295ELm7ELm2636928640ELm15ELm4022730752ELm18ELm1812433253EEC1Em,_ZNSt23mersenne_twister_engineImLm32ELm624ELm397ELm31ELm2567483615ELm11ELm4294967295ELm7ELm2636928640ELm15ELm4022730752ELm18ELm1812433253EEC2Em
	.section	.text._ZNSt25uniform_real_distributionIdEC2Edd,"axG",@progbits,_ZNSt25uniform_real_distributionIdEC5Edd,comdat
	.align 2
	.weak	_ZNSt25uniform_real_distributionIdEC2Edd
	.type	_ZNSt25uniform_real_distributionIdEC2Edd, @function
_ZNSt25uniform_real_distributionIdEC2Edd:
.LFB8717:
	.cfi_startproc
	pushq	%rbp
	.cfi_def_cfa_offset 16
	.cfi_offset 6, -16
	movq	%rsp, %rbp
	.cfi_def_cfa_register 6
	subq	$32, %rsp
	movq	%rdi, -8(%rbp)
	movsd	%xmm0, -16(%rbp)
	movsd	%xmm1, -24(%rbp)
	movq	-8(%rbp), %rax
	movsd	-24(%rbp), %xmm0
	movq	-16(%rbp), %rdx
	movapd	%xmm0, %xmm1
	movq	%rdx, -32(%rbp)
	movsd	-32(%rbp), %xmm0
	movq	%rax, %rdi
	call	_ZNSt25uniform_real_distributionIdE10param_typeC1Edd
	nop
	leave
	.cfi_def_cfa 7, 8
	ret
	.cfi_endproc
.LFE8717:
	.size	_ZNSt25uniform_real_distributionIdEC2Edd, .-_ZNSt25uniform_real_distributionIdEC2Edd
	.weak	_ZNSt25uniform_real_distributionIdEC1Edd
	.set	_ZNSt25uniform_real_distributionIdEC1Edd,_ZNSt25uniform_real_distributionIdEC2Edd
	.section	.text._ZNSt25uniform_real_distributionIdEclISt23mersenne_twister_engineImLm32ELm624ELm397ELm31ELm2567483615ELm11ELm4294967295ELm7ELm2636928640ELm15ELm4022730752ELm18ELm1812433253EEEEdRT_,"axG",@progbits,_ZNSt25uniform_real_distributionIdEclISt23mersenne_twister_engineImLm32ELm624ELm397ELm31ELm2567483615ELm11ELm4294967295ELm7ELm2636928640ELm15ELm4022730752ELm18ELm1812433253EEEEdRT_,comdat
	.align 2
	.weak	_ZNSt25uniform_real_distributionIdEclISt23mersenne_twister_engineImLm32ELm624ELm397ELm31ELm2567483615ELm11ELm4294967295ELm7ELm2636928640ELm15ELm4022730752ELm18ELm1812433253EEEEdRT_
	.type	_ZNSt25uniform_real_distributionIdEclISt23mersenne_twister_engineImLm32ELm624ELm397ELm31ELm2567483615ELm11ELm4294967295ELm7ELm2636928640ELm15ELm4022730752ELm18ELm1812433253EEEEdRT_, @function
_ZNSt25uniform_real_distributionIdEclISt23mersenne_twister_engineImLm32ELm624ELm397ELm31ELm2567483615ELm11ELm4294967295ELm7ELm2636928640ELm15ELm4022730752ELm18ELm1812433253EEEEdRT_:
.LFB8719:
	.cfi_startproc
	pushq	%rbp
	.cfi_def_cfa_offset 16
	.cfi_offset 6, -16
	movq	%rsp, %rbp
	.cfi_def_cfa_register 6
	subq	$32, %rsp
	movq	%rdi, -8(%rbp)
	movq	%rsi, -16(%rbp)
	movq	-8(%rbp), %rdx
	movq	-16(%rbp), %rcx
	movq	-8(%rbp), %rax
	movq	%rcx, %rsi
	movq	%rax, %rdi
	call	_ZNSt25uniform_real_distributionIdEclISt23mersenne_twister_engineImLm32ELm624ELm397ELm31ELm2567483615ELm11ELm4294967295ELm7ELm2636928640ELm15ELm4022730752ELm18ELm1812433253EEEEdRT_RKNS0_10param_typeE
	movq	%xmm0, %rax
	movq	%rax, -24(%rbp)
	movsd	-24(%rbp), %xmm0
	leave
	.cfi_def_cfa 7, 8
	ret
	.cfi_endproc
.LFE8719:
	.size	_ZNSt25uniform_real_distributionIdEclISt23mersenne_twister_engineImLm32ELm624ELm397ELm31ELm2567483615ELm11ELm4294967295ELm7ELm2636928640ELm15ELm4022730752ELm18ELm1812433253EEEEdRT_, .-_ZNSt25uniform_real_distributionIdEclISt23mersenne_twister_engineImLm32ELm624ELm397ELm31ELm2567483615ELm11ELm4294967295ELm7ELm2636928640ELm15ELm4022730752ELm18ELm1812433253EEEEdRT_
	.section	.text._ZNSt23mersenne_twister_engineImLm32ELm624ELm397ELm31ELm2567483615ELm11ELm4294967295ELm7ELm2636928640ELm15ELm4022730752ELm18ELm1812433253EE4seedEm,"axG",@progbits,_ZNSt23mersenne_twister_engineImLm32ELm624ELm397ELm31ELm2567483615ELm11ELm4294967295ELm7ELm2636928640ELm15ELm4022730752ELm18ELm1812433253EE4seedEm,comdat
	.align 2
	.weak	_ZNSt23mersenne_twister_engineImLm32ELm624ELm397ELm31ELm2567483615ELm11ELm4294967295ELm7ELm2636928640ELm15ELm4022730752ELm18ELm1812433253EE4seedEm
	.type	_ZNSt23mersenne_twister_engineImLm32ELm624ELm397ELm31ELm2567483615ELm11ELm4294967295ELm7ELm2636928640ELm15ELm4022730752ELm18ELm1812433253EE4seedEm, @function
_ZNSt23mersenne_twister_engineImLm32ELm624ELm397ELm31ELm2567483615ELm11ELm4294967295ELm7ELm2636928640ELm15ELm4022730752ELm18ELm1812433253EE4seedEm:
.LFB8991:
	.cfi_startproc
	pushq	%rbp
	.cfi_def_cfa_offset 16
	.cfi_offset 6, -16
	movq	%rsp, %rbp
	.cfi_def_cfa_register 6
	subq	$32, %rsp
	movq	%rdi, -24(%rbp)
	movq	%rsi, -32(%rbp)
	movq	-32(%rbp), %rax
	movq	%rax, %rdi
	call	_ZNSt8__detail5__modImLm4294967296ELm1ELm0EEET_S1_
	movq	%rax, %rdx
	movq	-24(%rbp), %rax
	movq	%rdx, (%rax)
	movq	$1, -16(%rbp)
.L27:
	cmpq	$623, -16(%rbp)
	ja	.L26
	movq	-16(%rbp), %rax
	leaq	-1(%rax), %rdx
	movq	-24(%rbp), %rax
	movq	(%rax,%rdx,8), %rax
	movq	%rax, -8(%rbp)
	movq	-8(%rbp), %rax
	shrq	$30, %rax
	xorq	%rax, -8(%rbp)
	movq	-8(%rbp), %rax
	imulq	$1812433253, %rax, %rax
	movq	%rax, -8(%rbp)
	movq	-16(%rbp), %rax
	movq	%rax, %rdi
	call	_ZNSt8__detail5__modImLm624ELm1ELm0EEET_S1_
	addq	%rax, -8(%rbp)
	movq	-8(%rbp), %rax
	movq	%rax, %rdi
	call	_ZNSt8__detail5__modImLm4294967296ELm1ELm0EEET_S1_
	movq	%rax, %rcx
	movq	-24(%rbp), %rax
	movq	-16(%rbp), %rdx
	movq	%rcx, (%rax,%rdx,8)
	addq	$1, -16(%rbp)
	jmp	.L27
.L26:
	movq	-24(%rbp), %rax
	movq	$624, 4992(%rax)
	nop
	leave
	.cfi_def_cfa 7, 8
	ret
	.cfi_endproc
.LFE8991:
	.size	_ZNSt23mersenne_twister_engineImLm32ELm624ELm397ELm31ELm2567483615ELm11ELm4294967295ELm7ELm2636928640ELm15ELm4022730752ELm18ELm1812433253EE4seedEm, .-_ZNSt23mersenne_twister_engineImLm32ELm624ELm397ELm31ELm2567483615ELm11ELm4294967295ELm7ELm2636928640ELm15ELm4022730752ELm18ELm1812433253EE4seedEm
	.section	.text._ZNSt25uniform_real_distributionIdE10param_typeC2Edd,"axG",@progbits,_ZNSt25uniform_real_distributionIdE10param_typeC5Edd,comdat
	.align 2
	.weak	_ZNSt25uniform_real_distributionIdE10param_typeC2Edd
	.type	_ZNSt25uniform_real_distributionIdE10param_typeC2Edd, @function
_ZNSt25uniform_real_distributionIdE10param_typeC2Edd:
.LFB8993:
	.cfi_startproc
	pushq	%rbp
	.cfi_def_cfa_offset 16
	.cfi_offset 6, -16
	movq	%rsp, %rbp
	.cfi_def_cfa_register 6
	movq	%rdi, -8(%rbp)
	movsd	%xmm0, -16(%rbp)
	movsd	%xmm1, -24(%rbp)
	movq	-8(%rbp), %rax
	movsd	-16(%rbp), %xmm0
	movsd	%xmm0, (%rax)
	movq	-8(%rbp), %rax
	movsd	-24(%rbp), %xmm0
	movsd	%xmm0, 8(%rax)
	nop
	popq	%rbp
	.cfi_def_cfa 7, 8
	ret
	.cfi_endproc
.LFE8993:
	.size	_ZNSt25uniform_real_distributionIdE10param_typeC2Edd, .-_ZNSt25uniform_real_distributionIdE10param_typeC2Edd
	.weak	_ZNSt25uniform_real_distributionIdE10param_typeC1Edd
	.set	_ZNSt25uniform_real_distributionIdE10param_typeC1Edd,_ZNSt25uniform_real_distributionIdE10param_typeC2Edd
	.section	.text._ZNSt25uniform_real_distributionIdEclISt23mersenne_twister_engineImLm32ELm624ELm397ELm31ELm2567483615ELm11ELm4294967295ELm7ELm2636928640ELm15ELm4022730752ELm18ELm1812433253EEEEdRT_RKNS0_10param_typeE,"axG",@progbits,_ZNSt25uniform_real_distributionIdEclISt23mersenne_twister_engineImLm32ELm624ELm397ELm31ELm2567483615ELm11ELm4294967295ELm7ELm2636928640ELm15ELm4022730752ELm18ELm1812433253EEEEdRT_RKNS0_10param_typeE,comdat
	.align 2
	.weak	_ZNSt25uniform_real_distributionIdEclISt23mersenne_twister_engineImLm32ELm624ELm397ELm31ELm2567483615ELm11ELm4294967295ELm7ELm2636928640ELm15ELm4022730752ELm18ELm1812433253EEEEdRT_RKNS0_10param_typeE
	.type	_ZNSt25uniform_real_distributionIdEclISt23mersenne_twister_engineImLm32ELm624ELm397ELm31ELm2567483615ELm11ELm4294967295ELm7ELm2636928640ELm15ELm4022730752ELm18ELm1812433253EEEEdRT_RKNS0_10param_typeE, @function
_ZNSt25uniform_real_distributionIdEclISt23mersenne_twister_engineImLm32ELm624ELm397ELm31ELm2567483615ELm11ELm4294967295ELm7ELm2636928640ELm15ELm4022730752ELm18ELm1812433253EEEEdRT_RKNS0_10param_typeE:
.LFB8995:
	.cfi_startproc
	pushq	%rbp
	.cfi_def_cfa_offset 16
	.cfi_offset 6, -16
	movq	%rsp, %rbp
	.cfi_def_cfa_register 6
	subq	$64, %rsp
	movq	%rdi, -24(%rbp)
	movq	%rsi, -32(%rbp)
	movq	%rdx, -40(%rbp)
	movq	%fs:40, %rax
	movq	%rax, -8(%rbp)
	xorl	%eax, %eax
	movq	-32(%rbp), %rdx
	leaq	-16(%rbp), %rax
	movq	%rdx, %rsi
	movq	%rax, %rdi
	call	_ZNSt8__detail8_AdaptorISt23mersenne_twister_engineImLm32ELm624ELm397ELm31ELm2567483615ELm11ELm4294967295ELm7ELm2636928640ELm15ELm4022730752ELm18ELm1812433253EEdEC1ERS2_
	leaq	-16(%rbp), %rax
	movq	%rax, %rdi
	call	_ZNSt8__detail8_AdaptorISt23mersenne_twister_engineImLm32ELm624ELm397ELm31ELm2567483615ELm11ELm4294967295ELm7ELm2636928640ELm15ELm4022730752ELm18ELm1812433253EEdEclEv
	movsd	%xmm0, -48(%rbp)
	movq	-40(%rbp), %rax
	movq	%rax, %rdi
	call	_ZNKSt25uniform_real_distributionIdE10param_type1bEv
	movsd	%xmm0, -56(%rbp)
	movq	-40(%rbp), %rax
	movq	%rax, %rdi
	call	_ZNKSt25uniform_real_distributionIdE10param_type1aEv
	movsd	-56(%rbp), %xmm1
	subsd	%xmm0, %xmm1
	movapd	%xmm1, %xmm0
	movapd	%xmm0, %xmm2
	mulsd	-48(%rbp), %xmm2
	movsd	%xmm2, -48(%rbp)
	movq	-40(%rbp), %rax
	movq	%rax, %rdi
	call	_ZNKSt25uniform_real_distributionIdE10param_type1aEv
	addsd	-48(%rbp), %xmm0
	movq	-8(%rbp), %rax
	xorq	%fs:40, %rax
	je	.L31
	call	__stack_chk_fail@PLT
.L31:
	leave
	.cfi_def_cfa 7, 8
	ret
	.cfi_endproc
.LFE8995:
	.size	_ZNSt25uniform_real_distributionIdEclISt23mersenne_twister_engineImLm32ELm624ELm397ELm31ELm2567483615ELm11ELm4294967295ELm7ELm2636928640ELm15ELm4022730752ELm18ELm1812433253EEEEdRT_RKNS0_10param_typeE, .-_ZNSt25uniform_real_distributionIdEclISt23mersenne_twister_engineImLm32ELm624ELm397ELm31ELm2567483615ELm11ELm4294967295ELm7ELm2636928640ELm15ELm4022730752ELm18ELm1812433253EEEEdRT_RKNS0_10param_typeE
	.section	.text._ZNSt8__detail5__modImLm4294967296ELm1ELm0EEET_S1_,"axG",@progbits,_ZNSt8__detail5__modImLm4294967296ELm1ELm0EEET_S1_,comdat
	.weak	_ZNSt8__detail5__modImLm4294967296ELm1ELm0EEET_S1_
	.type	_ZNSt8__detail5__modImLm4294967296ELm1ELm0EEET_S1_, @function
_ZNSt8__detail5__modImLm4294967296ELm1ELm0EEET_S1_:
.LFB9141:
	.cfi_startproc
	pushq	%rbp
	.cfi_def_cfa_offset 16
	.cfi_offset 6, -16
	movq	%rsp, %rbp
	.cfi_def_cfa_register 6
	subq	$16, %rsp
	movq	%rdi, -8(%rbp)
	movq	-8(%rbp), %rax
	movq	%rax, %rdi
	call	_ZNSt8__detail4_ModImLm4294967296ELm1ELm0ELb1ELb1EE6__calcEm
	leave
	.cfi_def_cfa 7, 8
	ret
	.cfi_endproc
.LFE9141:
	.size	_ZNSt8__detail5__modImLm4294967296ELm1ELm0EEET_S1_, .-_ZNSt8__detail5__modImLm4294967296ELm1ELm0EEET_S1_
	.section	.text._ZNSt8__detail5__modImLm624ELm1ELm0EEET_S1_,"axG",@progbits,_ZNSt8__detail5__modImLm624ELm1ELm0EEET_S1_,comdat
	.weak	_ZNSt8__detail5__modImLm624ELm1ELm0EEET_S1_
	.type	_ZNSt8__detail5__modImLm624ELm1ELm0EEET_S1_, @function
_ZNSt8__detail5__modImLm624ELm1ELm0EEET_S1_:
.LFB9142:
	.cfi_startproc
	pushq	%rbp
	.cfi_def_cfa_offset 16
	.cfi_offset 6, -16
	movq	%rsp, %rbp
	.cfi_def_cfa_register 6
	subq	$16, %rsp
	movq	%rdi, -8(%rbp)
	movq	-8(%rbp), %rax
	movq	%rax, %rdi
	call	_ZNSt8__detail4_ModImLm624ELm1ELm0ELb1ELb1EE6__calcEm
	leave
	.cfi_def_cfa 7, 8
	ret
	.cfi_endproc
.LFE9142:
	.size	_ZNSt8__detail5__modImLm624ELm1ELm0EEET_S1_, .-_ZNSt8__detail5__modImLm624ELm1ELm0EEET_S1_
	.section	.text._ZNSt8__detail8_AdaptorISt23mersenne_twister_engineImLm32ELm624ELm397ELm31ELm2567483615ELm11ELm4294967295ELm7ELm2636928640ELm15ELm4022730752ELm18ELm1812433253EEdEC2ERS2_,"axG",@progbits,_ZNSt8__detail8_AdaptorISt23mersenne_twister_engineImLm32ELm624ELm397ELm31ELm2567483615ELm11ELm4294967295ELm7ELm2636928640ELm15ELm4022730752ELm18ELm1812433253EEdEC5ERS2_,comdat
	.align 2
	.weak	_ZNSt8__detail8_AdaptorISt23mersenne_twister_engineImLm32ELm624ELm397ELm31ELm2567483615ELm11ELm4294967295ELm7ELm2636928640ELm15ELm4022730752ELm18ELm1812433253EEdEC2ERS2_
	.type	_ZNSt8__detail8_AdaptorISt23mersenne_twister_engineImLm32ELm624ELm397ELm31ELm2567483615ELm11ELm4294967295ELm7ELm2636928640ELm15ELm4022730752ELm18ELm1812433253EEdEC2ERS2_, @function
_ZNSt8__detail8_AdaptorISt23mersenne_twister_engineImLm32ELm624ELm397ELm31ELm2567483615ELm11ELm4294967295ELm7ELm2636928640ELm15ELm4022730752ELm18ELm1812433253EEdEC2ERS2_:
.LFB9144:
	.cfi_startproc
	pushq	%rbp
	.cfi_def_cfa_offset 16
	.cfi_offset 6, -16
	movq	%rsp, %rbp
	.cfi_def_cfa_register 6
	movq	%rdi, -8(%rbp)
	movq	%rsi, -16(%rbp)
	movq	-8(%rbp), %rax
	movq	-16(%rbp), %rdx
	movq	%rdx, (%rax)
	nop
	popq	%rbp
	.cfi_def_cfa 7, 8
	ret
	.cfi_endproc
.LFE9144:
	.size	_ZNSt8__detail8_AdaptorISt23mersenne_twister_engineImLm32ELm624ELm397ELm31ELm2567483615ELm11ELm4294967295ELm7ELm2636928640ELm15ELm4022730752ELm18ELm1812433253EEdEC2ERS2_, .-_ZNSt8__detail8_AdaptorISt23mersenne_twister_engineImLm32ELm624ELm397ELm31ELm2567483615ELm11ELm4294967295ELm7ELm2636928640ELm15ELm4022730752ELm18ELm1812433253EEdEC2ERS2_
	.weak	_ZNSt8__detail8_AdaptorISt23mersenne_twister_engineImLm32ELm624ELm397ELm31ELm2567483615ELm11ELm4294967295ELm7ELm2636928640ELm15ELm4022730752ELm18ELm1812433253EEdEC1ERS2_
	.set	_ZNSt8__detail8_AdaptorISt23mersenne_twister_engineImLm32ELm624ELm397ELm31ELm2567483615ELm11ELm4294967295ELm7ELm2636928640ELm15ELm4022730752ELm18ELm1812433253EEdEC1ERS2_,_ZNSt8__detail8_AdaptorISt23mersenne_twister_engineImLm32ELm624ELm397ELm31ELm2567483615ELm11ELm4294967295ELm7ELm2636928640ELm15ELm4022730752ELm18ELm1812433253EEdEC2ERS2_
	.section	.text._ZNSt8__detail8_AdaptorISt23mersenne_twister_engineImLm32ELm624ELm397ELm31ELm2567483615ELm11ELm4294967295ELm7ELm2636928640ELm15ELm4022730752ELm18ELm1812433253EEdEclEv,"axG",@progbits,_ZNSt8__detail8_AdaptorISt23mersenne_twister_engineImLm32ELm624ELm397ELm31ELm2567483615ELm11ELm4294967295ELm7ELm2636928640ELm15ELm4022730752ELm18ELm1812433253EEdEclEv,comdat
	.align 2
	.weak	_ZNSt8__detail8_AdaptorISt23mersenne_twister_engineImLm32ELm624ELm397ELm31ELm2567483615ELm11ELm4294967295ELm7ELm2636928640ELm15ELm4022730752ELm18ELm1812433253EEdEclEv
	.type	_ZNSt8__detail8_AdaptorISt23mersenne_twister_engineImLm32ELm624ELm397ELm31ELm2567483615ELm11ELm4294967295ELm7ELm2636928640ELm15ELm4022730752ELm18ELm1812433253EEdEclEv, @function
_ZNSt8__detail8_AdaptorISt23mersenne_twister_engineImLm32ELm624ELm397ELm31ELm2567483615ELm11ELm4294967295ELm7ELm2636928640ELm15ELm4022730752ELm18ELm1812433253EEdEclEv:
.LFB9146:
	.cfi_startproc
	pushq	%rbp
	.cfi_def_cfa_offset 16
	.cfi_offset 6, -16
	movq	%rsp, %rbp
	.cfi_def_cfa_register 6
	subq	$16, %rsp
	movq	%rdi, -8(%rbp)
	movq	-8(%rbp), %rax
	movq	(%rax), %rax
	movq	%rax, %rdi
	call	_ZSt18generate_canonicalIdLm53ESt23mersenne_twister_engineImLm32ELm624ELm397ELm31ELm2567483615ELm11ELm4294967295ELm7ELm2636928640ELm15ELm4022730752ELm18ELm1812433253EEET_RT1_
	movq	%xmm0, %rax
	movq	%rax, -16(%rbp)
	movsd	-16(%rbp), %xmm0
	leave
	.cfi_def_cfa 7, 8
	ret
	.cfi_endproc
.LFE9146:
	.size	_ZNSt8__detail8_AdaptorISt23mersenne_twister_engineImLm32ELm624ELm397ELm31ELm2567483615ELm11ELm4294967295ELm7ELm2636928640ELm15ELm4022730752ELm18ELm1812433253EEdEclEv, .-_ZNSt8__detail8_AdaptorISt23mersenne_twister_engineImLm32ELm624ELm397ELm31ELm2567483615ELm11ELm4294967295ELm7ELm2636928640ELm15ELm4022730752ELm18ELm1812433253EEdEclEv
	.section	.text._ZNKSt25uniform_real_distributionIdE10param_type1bEv,"axG",@progbits,_ZNKSt25uniform_real_distributionIdE10param_type1bEv,comdat
	.align 2
	.weak	_ZNKSt25uniform_real_distributionIdE10param_type1bEv
	.type	_ZNKSt25uniform_real_distributionIdE10param_type1bEv, @function
_ZNKSt25uniform_real_distributionIdE10param_type1bEv:
.LFB9147:
	.cfi_startproc
	pushq	%rbp
	.cfi_def_cfa_offset 16
	.cfi_offset 6, -16
	movq	%rsp, %rbp
	.cfi_def_cfa_register 6
	movq	%rdi, -8(%rbp)
	movq	-8(%rbp), %rax
	movsd	8(%rax), %xmm0
	popq	%rbp
	.cfi_def_cfa 7, 8
	ret
	.cfi_endproc
.LFE9147:
	.size	_ZNKSt25uniform_real_distributionIdE10param_type1bEv, .-_ZNKSt25uniform_real_distributionIdE10param_type1bEv
	.section	.text._ZNKSt25uniform_real_distributionIdE10param_type1aEv,"axG",@progbits,_ZNKSt25uniform_real_distributionIdE10param_type1aEv,comdat
	.align 2
	.weak	_ZNKSt25uniform_real_distributionIdE10param_type1aEv
	.type	_ZNKSt25uniform_real_distributionIdE10param_type1aEv, @function
_ZNKSt25uniform_real_distributionIdE10param_type1aEv:
.LFB9148:
	.cfi_startproc
	pushq	%rbp
	.cfi_def_cfa_offset 16
	.cfi_offset 6, -16
	movq	%rsp, %rbp
	.cfi_def_cfa_register 6
	movq	%rdi, -8(%rbp)
	movq	-8(%rbp), %rax
	movsd	(%rax), %xmm0
	popq	%rbp
	.cfi_def_cfa 7, 8
	ret
	.cfi_endproc
.LFE9148:
	.size	_ZNKSt25uniform_real_distributionIdE10param_type1aEv, .-_ZNKSt25uniform_real_distributionIdE10param_type1aEv
	.section	.text._ZNSt8__detail4_ModImLm4294967296ELm1ELm0ELb1ELb1EE6__calcEm,"axG",@progbits,_ZNSt8__detail4_ModImLm4294967296ELm1ELm0ELb1ELb1EE6__calcEm,comdat
	.weak	_ZNSt8__detail4_ModImLm4294967296ELm1ELm0ELb1ELb1EE6__calcEm
	.type	_ZNSt8__detail4_ModImLm4294967296ELm1ELm0ELb1ELb1EE6__calcEm, @function
_ZNSt8__detail4_ModImLm4294967296ELm1ELm0ELb1ELb1EE6__calcEm:
.LFB9246:
	.cfi_startproc
	pushq	%rbp
	.cfi_def_cfa_offset 16
	.cfi_offset 6, -16
	movq	%rsp, %rbp
	.cfi_def_cfa_register 6
	movq	%rdi, -24(%rbp)
	movq	-24(%rbp), %rax
	movq	%rax, -8(%rbp)
	movl	$4294967295, %eax
	andq	%rax, -8(%rbp)
	movq	-8(%rbp), %rax
	popq	%rbp
	.cfi_def_cfa 7, 8
	ret
	.cfi_endproc
.LFE9246:
	.size	_ZNSt8__detail4_ModImLm4294967296ELm1ELm0ELb1ELb1EE6__calcEm, .-_ZNSt8__detail4_ModImLm4294967296ELm1ELm0ELb1ELb1EE6__calcEm
	.section	.text._ZNSt8__detail4_ModImLm624ELm1ELm0ELb1ELb1EE6__calcEm,"axG",@progbits,_ZNSt8__detail4_ModImLm624ELm1ELm0ELb1ELb1EE6__calcEm,comdat
	.weak	_ZNSt8__detail4_ModImLm624ELm1ELm0ELb1ELb1EE6__calcEm
	.type	_ZNSt8__detail4_ModImLm624ELm1ELm0ELb1ELb1EE6__calcEm, @function
_ZNSt8__detail4_ModImLm624ELm1ELm0ELb1ELb1EE6__calcEm:
.LFB9247:
	.cfi_startproc
	pushq	%rbp
	.cfi_def_cfa_offset 16
	.cfi_offset 6, -16
	movq	%rsp, %rbp
	.cfi_def_cfa_register 6
	movq	%rdi, -24(%rbp)
	movq	-24(%rbp), %rax
	movq	%rax, -8(%rbp)
	movq	-8(%rbp), %rcx
	movq	%rcx, %rax
	shrq	$4, %rax
	movabsq	$945986875574848801, %rdx
	mulq	%rdx
	movq	%rdx, %rax
	shrq	%rax
	imulq	$624, %rax, %rax
	subq	%rax, %rcx
	movq	%rcx, %rax
	movq	%rax, -8(%rbp)
	movq	-8(%rbp), %rax
	popq	%rbp
	.cfi_def_cfa 7, 8
	ret
	.cfi_endproc
.LFE9247:
	.size	_ZNSt8__detail4_ModImLm624ELm1ELm0ELb1ELb1EE6__calcEm, .-_ZNSt8__detail4_ModImLm624ELm1ELm0ELb1ELb1EE6__calcEm
	.section	.text._ZNSt23mersenne_twister_engineImLm32ELm624ELm397ELm31ELm2567483615ELm11ELm4294967295ELm7ELm2636928640ELm15ELm4022730752ELm18ELm1812433253EE3minEv,"axG",@progbits,_ZNSt23mersenne_twister_engineImLm32ELm624ELm397ELm31ELm2567483615ELm11ELm4294967295ELm7ELm2636928640ELm15ELm4022730752ELm18ELm1812433253EE3minEv,comdat
	.weak	_ZNSt23mersenne_twister_engineImLm32ELm624ELm397ELm31ELm2567483615ELm11ELm4294967295ELm7ELm2636928640ELm15ELm4022730752ELm18ELm1812433253EE3minEv
	.type	_ZNSt23mersenne_twister_engineImLm32ELm624ELm397ELm31ELm2567483615ELm11ELm4294967295ELm7ELm2636928640ELm15ELm4022730752ELm18ELm1812433253EE3minEv, @function
_ZNSt23mersenne_twister_engineImLm32ELm624ELm397ELm31ELm2567483615ELm11ELm4294967295ELm7ELm2636928640ELm15ELm4022730752ELm18ELm1812433253EE3minEv:
.LFB9250:
	.cfi_startproc
	pushq	%rbp
	.cfi_def_cfa_offset 16
	.cfi_offset 6, -16
	movq	%rsp, %rbp
	.cfi_def_cfa_register 6
	movl	$0, %eax
	popq	%rbp
	.cfi_def_cfa 7, 8
	ret
	.cfi_endproc
.LFE9250:
	.size	_ZNSt23mersenne_twister_engineImLm32ELm624ELm397ELm31ELm2567483615ELm11ELm4294967295ELm7ELm2636928640ELm15ELm4022730752ELm18ELm1812433253EE3minEv, .-_ZNSt23mersenne_twister_engineImLm32ELm624ELm397ELm31ELm2567483615ELm11ELm4294967295ELm7ELm2636928640ELm15ELm4022730752ELm18ELm1812433253EE3minEv
	.section	.text._ZSt18generate_canonicalIdLm53ESt23mersenne_twister_engineImLm32ELm624ELm397ELm31ELm2567483615ELm11ELm4294967295ELm7ELm2636928640ELm15ELm4022730752ELm18ELm1812433253EEET_RT1_,"axG",@progbits,_ZSt18generate_canonicalIdLm53ESt23mersenne_twister_engineImLm32ELm624ELm397ELm31ELm2567483615ELm11ELm4294967295ELm7ELm2636928640ELm15ELm4022730752ELm18ELm1812433253EEET_RT1_,comdat
	.weak	_ZSt18generate_canonicalIdLm53ESt23mersenne_twister_engineImLm32ELm624ELm397ELm31ELm2567483615ELm11ELm4294967295ELm7ELm2636928640ELm15ELm4022730752ELm18ELm1812433253EEET_RT1_
	.type	_ZSt18generate_canonicalIdLm53ESt23mersenne_twister_engineImLm32ELm624ELm397ELm31ELm2567483615ELm11ELm4294967295ELm7ELm2636928640ELm15ELm4022730752ELm18ELm1812433253EEET_RT1_, @function
_ZSt18generate_canonicalIdLm53ESt23mersenne_twister_engineImLm32ELm624ELm397ELm31ELm2567483615ELm11ELm4294967295ELm7ELm2636928640ELm15ELm4022730752ELm18ELm1812433253EEET_RT1_:
.LFB9248:
	.cfi_startproc
	pushq	%rbp
	.cfi_def_cfa_offset 16
	.cfi_offset 6, -16
	movq	%rsp, %rbp
	.cfi_def_cfa_register 6
	pushq	%rbx
	subq	$120, %rsp
	.cfi_offset 3, -24
	movq	%rdi, -104(%rbp)
	movq	$53, -56(%rbp)
	fldt	.LC6(%rip)
	fstpt	-32(%rbp)
	movq	$32, -48(%rbp)
	movq	$2, -40(%rbp)
	pxor	%xmm0, %xmm0
	movsd	%xmm0, -80(%rbp)
	movsd	.LC3(%rip), %xmm0
	movsd	%xmm0, -72(%rbp)
	movq	$2, -64(%rbp)
.L53:
	cmpq	$0, -64(%rbp)
	je	.L50
	movq	-104(%rbp), %rax
	movq	%rax, %rdi
	call	_ZNSt23mersenne_twister_engineImLm32ELm624ELm397ELm31ELm2567483615ELm11ELm4294967295ELm7ELm2636928640ELm15ELm4022730752ELm18ELm1812433253EEclEv
	movq	%rax, %rbx
	call	_ZNSt23mersenne_twister_engineImLm32ELm624ELm397ELm31ELm2567483615ELm11ELm4294967295ELm7ELm2636928640ELm15ELm4022730752ELm18ELm1812433253EE3minEv
	subq	%rax, %rbx
	movq	%rbx, %rax
	testq	%rax, %rax
	js	.L51
	cvtsi2sdq	%rax, %xmm0
	jmp	.L52
.L51:
	movq	%rax, %rdx
	shrq	%rdx
	andl	$1, %eax
	orq	%rax, %rdx
	cvtsi2sdq	%rdx, %xmm0
	addsd	%xmm0, %xmm0
.L52:
	mulsd	-72(%rbp), %xmm0
	movsd	-80(%rbp), %xmm1
	addsd	%xmm1, %xmm0
	movsd	%xmm0, -80(%rbp)
	fldl	-72(%rbp)
	fldt	.LC6(%rip)
	fmulp	%st, %st(1)
	fstpl	-72(%rbp)
	subq	$1, -64(%rbp)
	jmp	.L53
.L50:
	movsd	-80(%rbp), %xmm0
	divsd	-72(%rbp), %xmm0
	movsd	%xmm0, -88(%rbp)
	movsd	-88(%rbp), %xmm0
	movsd	.LC3(%rip), %xmm1
	ucomisd	%xmm1, %xmm0
	setnb	%al
	movzbl	%al, %eax
	testq	%rax, %rax
	je	.L54
	movq	.LC3(%rip), %rax
	pxor	%xmm1, %xmm1
	movq	%rax, -120(%rbp)
	movsd	-120(%rbp), %xmm0
	call	nextafter@PLT
	movq	%xmm0, %rax
	movq	%rax, -88(%rbp)
.L54:
	movsd	-88(%rbp), %xmm0
	addq	$120, %rsp
	popq	%rbx
	popq	%rbp
	.cfi_def_cfa 7, 8
	ret
	.cfi_endproc
.LFE9248:
	.size	_ZSt18generate_canonicalIdLm53ESt23mersenne_twister_engineImLm32ELm624ELm397ELm31ELm2567483615ELm11ELm4294967295ELm7ELm2636928640ELm15ELm4022730752ELm18ELm1812433253EEET_RT1_, .-_ZSt18generate_canonicalIdLm53ESt23mersenne_twister_engineImLm32ELm624ELm397ELm31ELm2567483615ELm11ELm4294967295ELm7ELm2636928640ELm15ELm4022730752ELm18ELm1812433253EEET_RT1_
	.section	.text._ZNSt23mersenne_twister_engineImLm32ELm624ELm397ELm31ELm2567483615ELm11ELm4294967295ELm7ELm2636928640ELm15ELm4022730752ELm18ELm1812433253EEclEv,"axG",@progbits,_ZNSt23mersenne_twister_engineImLm32ELm624ELm397ELm31ELm2567483615ELm11ELm4294967295ELm7ELm2636928640ELm15ELm4022730752ELm18ELm1812433253EEclEv,comdat
	.align 2
	.weak	_ZNSt23mersenne_twister_engineImLm32ELm624ELm397ELm31ELm2567483615ELm11ELm4294967295ELm7ELm2636928640ELm15ELm4022730752ELm18ELm1812433253EEclEv
	.type	_ZNSt23mersenne_twister_engineImLm32ELm624ELm397ELm31ELm2567483615ELm11ELm4294967295ELm7ELm2636928640ELm15ELm4022730752ELm18ELm1812433253EEclEv, @function
_ZNSt23mersenne_twister_engineImLm32ELm624ELm397ELm31ELm2567483615ELm11ELm4294967295ELm7ELm2636928640ELm15ELm4022730752ELm18ELm1812433253EEclEv:
.LFB9328:
	.cfi_startproc
	pushq	%rbp
	.cfi_def_cfa_offset 16
	.cfi_offset 6, -16
	movq	%rsp, %rbp
	.cfi_def_cfa_register 6
	subq	$32, %rsp
	movq	%rdi, -24(%rbp)
	movq	-24(%rbp), %rax
	movq	4992(%rax), %rax
	cmpq	$623, %rax
	jbe	.L57
	movq	-24(%rbp), %rax
	movq	%rax, %rdi
	call	_ZNSt23mersenne_twister_engineImLm32ELm624ELm397ELm31ELm2567483615ELm11ELm4294967295ELm7ELm2636928640ELm15ELm4022730752ELm18ELm1812433253EE11_M_gen_randEv
.L57:
	movq	-24(%rbp), %rax
	movq	4992(%rax), %rax
	leaq	1(%rax), %rcx
	movq	-24(%rbp), %rdx
	movq	%rcx, 4992(%rdx)
	movq	-24(%rbp), %rdx
	movq	(%rdx,%rax,8), %rax
	movq	%rax, -8(%rbp)
	movq	-8(%rbp), %rax
	shrq	$11, %rax
	movl	%eax, %eax
	xorq	%rax, -8(%rbp)
	movq	-8(%rbp), %rax
	salq	$7, %rax
	andl	$2636928640, %eax
	xorq	%rax, -8(%rbp)
	movq	-8(%rbp), %rax
	salq	$15, %rax
	andl	$4022730752, %eax
	xorq	%rax, -8(%rbp)
	movq	-8(%rbp), %rax
	shrq	$18, %rax
	xorq	%rax, -8(%rbp)
	movq	-8(%rbp), %rax
	leave
	.cfi_def_cfa 7, 8
	ret
	.cfi_endproc
.LFE9328:
	.size	_ZNSt23mersenne_twister_engineImLm32ELm624ELm397ELm31ELm2567483615ELm11ELm4294967295ELm7ELm2636928640ELm15ELm4022730752ELm18ELm1812433253EEclEv, .-_ZNSt23mersenne_twister_engineImLm32ELm624ELm397ELm31ELm2567483615ELm11ELm4294967295ELm7ELm2636928640ELm15ELm4022730752ELm18ELm1812433253EEclEv
	.section	.text._ZNSt23mersenne_twister_engineImLm32ELm624ELm397ELm31ELm2567483615ELm11ELm4294967295ELm7ELm2636928640ELm15ELm4022730752ELm18ELm1812433253EE11_M_gen_randEv,"axG",@progbits,_ZNSt23mersenne_twister_engineImLm32ELm624ELm397ELm31ELm2567483615ELm11ELm4294967295ELm7ELm2636928640ELm15ELm4022730752ELm18ELm1812433253EE11_M_gen_randEv,comdat
	.align 2
	.weak	_ZNSt23mersenne_twister_engineImLm32ELm624ELm397ELm31ELm2567483615ELm11ELm4294967295ELm7ELm2636928640ELm15ELm4022730752ELm18ELm1812433253EE11_M_gen_randEv
	.type	_ZNSt23mersenne_twister_engineImLm32ELm624ELm397ELm31ELm2567483615ELm11ELm4294967295ELm7ELm2636928640ELm15ELm4022730752ELm18ELm1812433253EE11_M_gen_randEv, @function
_ZNSt23mersenne_twister_engineImLm32ELm624ELm397ELm31ELm2567483615ELm11ELm4294967295ELm7ELm2636928640ELm15ELm4022730752ELm18ELm1812433253EE11_M_gen_randEv:
.LFB9416:
	.cfi_startproc
	pushq	%rbp
	.cfi_def_cfa_offset 16
	.cfi_offset 6, -16
	movq	%rsp, %rbp
	.cfi_def_cfa_register 6
	movq	%rdi, -72(%rbp)
	movq	$-2147483648, -40(%rbp)
	movq	$2147483647, -32(%rbp)
	movq	$0, -56(%rbp)
.L63:
	cmpq	$226, -56(%rbp)
	ja	.L60
	movq	-72(%rbp), %rax
	movq	-56(%rbp), %rdx
	movq	(%rax,%rdx,8), %rax
	andq	$-2147483648, %rax
	movq	%rax, %rcx
	movq	-56(%rbp), %rax
	leaq	1(%rax), %rdx
	movq	-72(%rbp), %rax
	movq	(%rax,%rdx,8), %rax
	andl	$2147483647, %eax
	orq	%rcx, %rax
	movq	%rax, -24(%rbp)
	movq	-56(%rbp), %rax
	leaq	397(%rax), %rdx
	movq	-72(%rbp), %rax
	movq	(%rax,%rdx,8), %rax
	movq	-24(%rbp), %rdx
	shrq	%rdx
	xorq	%rax, %rdx
	movq	-24(%rbp), %rax
	andl	$1, %eax
	testq	%rax, %rax
	je	.L61
	movl	$2567483615, %eax
	jmp	.L62
.L61:
	movl	$0, %eax
.L62:
	xorq	%rdx, %rax
	movq	%rax, %rcx
	movq	-72(%rbp), %rax
	movq	-56(%rbp), %rdx
	movq	%rcx, (%rax,%rdx,8)
	addq	$1, -56(%rbp)
	jmp	.L63
.L60:
	movq	$227, -48(%rbp)
.L67:
	cmpq	$622, -48(%rbp)
	ja	.L64
	movq	-72(%rbp), %rax
	movq	-48(%rbp), %rdx
	movq	(%rax,%rdx,8), %rax
	andq	$-2147483648, %rax
	movq	%rax, %rcx
	movq	-48(%rbp), %rax
	leaq	1(%rax), %rdx
	movq	-72(%rbp), %rax
	movq	(%rax,%rdx,8), %rax
	andl	$2147483647, %eax
	orq	%rcx, %rax
	movq	%rax, -16(%rbp)
	movq	-48(%rbp), %rax
	leaq	-227(%rax), %rdx
	movq	-72(%rbp), %rax
	movq	(%rax,%rdx,8), %rax
	movq	-16(%rbp), %rdx
	shrq	%rdx
	xorq	%rax, %rdx
	movq	-16(%rbp), %rax
	andl	$1, %eax
	testq	%rax, %rax
	je	.L65
	movl	$2567483615, %eax
	jmp	.L66
.L65:
	movl	$0, %eax
.L66:
	xorq	%rdx, %rax
	movq	%rax, %rcx
	movq	-72(%rbp), %rax
	movq	-48(%rbp), %rdx
	movq	%rcx, (%rax,%rdx,8)
	addq	$1, -48(%rbp)
	jmp	.L67
.L64:
	movq	-72(%rbp), %rax
	movq	4984(%rax), %rax
	andq	$-2147483648, %rax
	movq	%rax, %rdx
	movq	-72(%rbp), %rax
	movq	(%rax), %rax
	andl	$2147483647, %eax
	orq	%rdx, %rax
	movq	%rax, -8(%rbp)
	movq	-72(%rbp), %rax
	movq	3168(%rax), %rax
	movq	-8(%rbp), %rdx
	shrq	%rdx
	xorq	%rax, %rdx
	movq	-8(%rbp), %rax
	andl	$1, %eax
	testq	%rax, %rax
	je	.L68
	movl	$2567483615, %eax
	jmp	.L69
.L68:
	movl	$0, %eax
.L69:
	xorq	%rax, %rdx
	movq	-72(%rbp), %rax
	movq	%rdx, 4984(%rax)
	movq	-72(%rbp), %rax
	movq	$0, 4992(%rax)
	nop
	popq	%rbp
	.cfi_def_cfa 7, 8
	ret
	.cfi_endproc
.LFE9416:
	.size	_ZNSt23mersenne_twister_engineImLm32ELm624ELm397ELm31ELm2567483615ELm11ELm4294967295ELm7ELm2636928640ELm15ELm4022730752ELm18ELm1812433253EE11_M_gen_randEv, .-_ZNSt23mersenne_twister_engineImLm32ELm624ELm397ELm31ELm2567483615ELm11ELm4294967295ELm7ELm2636928640ELm15ELm4022730752ELm18ELm1812433253EE11_M_gen_randEv
	.text
	.type	_Z41__static_initialization_and_destruction_0ii, @function
_Z41__static_initialization_and_destruction_0ii:
.LFB9525:
	.cfi_startproc
	pushq	%rbp
	.cfi_def_cfa_offset 16
	.cfi_offset 6, -16
	movq	%rsp, %rbp
	.cfi_def_cfa_register 6
	subq	$16, %rsp
	movl	%edi, -4(%rbp)
	movl	%esi, -8(%rbp)
	cmpl	$1, -4(%rbp)
	jne	.L72
	cmpl	$65535, -8(%rbp)
	jne	.L72
	leaq	_ZStL8__ioinit(%rip), %rdi
	call	_ZNSt8ios_base4InitC1Ev@PLT
	leaq	__dso_handle(%rip), %rdx
	leaq	_ZStL8__ioinit(%rip), %rsi
	movq	_ZNSt8ios_base4InitD1Ev@GOTPCREL(%rip), %rax
	movq	%rax, %rdi
	call	__cxa_atexit@PLT
.L72:
	nop
	leave
	.cfi_def_cfa 7, 8
	ret
	.cfi_endproc
.LFE9525:
	.size	_Z41__static_initialization_and_destruction_0ii, .-_Z41__static_initialization_and_destruction_0ii
	.type	_GLOBAL__sub_I_main, @function
_GLOBAL__sub_I_main:
.LFB9548:
	.cfi_startproc
	pushq	%rbp
	.cfi_def_cfa_offset 16
	.cfi_offset 6, -16
	movq	%rsp, %rbp
	.cfi_def_cfa_register 6
	movl	$65535, %esi
	movl	$1, %edi
	call	_Z41__static_initialization_and_destruction_0ii
	popq	%rbp
	.cfi_def_cfa 7, 8
	ret
	.cfi_endproc
.LFE9548:
	.size	_GLOBAL__sub_I_main, .-_GLOBAL__sub_I_main
	.section	.init_array,"aw"
	.align 8
	.quad	_GLOBAL__sub_I_main
	.section	.rodata
	.align 8
.LC0:
	.long	0
	.long	1071644672
	.align 8
.LC2:
	.long	0
	.long	1073741824
	.align 8
.LC3:
	.long	0
	.long	1072693248
	.align 16
.LC6:
	.long	0
	.long	2147483648
	.long	16415
	.long	0
	.hidden	DW.ref.__gxx_personality_v0
	.weak	DW.ref.__gxx_personality_v0
	.section	.data.rel.local.DW.ref.__gxx_personality_v0,"awG",@progbits,DW.ref.__gxx_personality_v0,comdat
	.align 8
	.type	DW.ref.__gxx_personality_v0, @object
	.size	DW.ref.__gxx_personality_v0, 8
DW.ref.__gxx_personality_v0:
	.quad	__gxx_personality_v0
	.hidden	__dso_handle
	.ident	"GCC: (Ubuntu 7.5.0-3ubuntu1~18.04) 7.5.0"
	.section	.note.GNU-stack,"",@progbits
